; ModuleID = '9/1120.c'
source_filename = "9/1120.c"
target datalayout = "e-m:e-p270:32:32-p271:32:32-p272:64:64-i64:64-f80:128-n8:16:32:64-S128"
target triple = "x86_64-pc-linux-gnu"

%struct.p = type { [100 x i8], i32 }

@.str = private unnamed_addr constant [3 x i8] c"%d\00", align 1
@.str.1 = private unnamed_addr constant [5 x i8] c"%s%d\00", align 1
@.str.2 = private unnamed_addr constant [4 x i8] c"%s\0A\00", align 1

; Function Attrs: noinline nounwind uwtable
define dso_local i32 @main() #0 {
  %1 = alloca i32, align 4
  %2 = alloca i32, align 4
  %3 = alloca i32, align 4
  %4 = alloca i32, align 4
  %5 = alloca i32, align 4
  %6 = alloca [100 x %struct.p], align 16
  %7 = alloca [100 x %struct.p], align 16
  %8 = alloca %struct.p, align 4
  store i32 0, i32* %1, align 4
  %9 = call i32 (i8*, ...) @__isoc99_scanf(i8* getelementptr inbounds ([3 x i8], [3 x i8]* @.str, i64 0, i64 0), i32* %2)
  store i32 0, i32* %3, align 4
  br label %10

10:                                               ; preds = %24, %0
  %11 = load i32, i32* %3, align 4
  %12 = load i32, i32* %2, align 4
  %13 = icmp slt i32 %11, %12
  br i1 %13, label %14, label %27

14:                                               ; preds = %10
  %15 = load i32, i32* %3, align 4
  %16 = sext i32 %15 to i64
  %17 = getelementptr inbounds [100 x %struct.p], [100 x %struct.p]* %6, i64 0, i64 %16
  %18 = getelementptr inbounds %struct.p, %struct.p* %17, i32 0, i32 0
  %19 = load i32, i32* %3, align 4
  %20 = sext i32 %19 to i64
  %21 = getelementptr inbounds [100 x %struct.p], [100 x %struct.p]* %6, i64 0, i64 %20
  %22 = getelementptr inbounds %struct.p, %struct.p* %21, i32 0, i32 1
  %23 = call i32 (i8*, ...) @__isoc99_scanf(i8* getelementptr inbounds ([5 x i8], [5 x i8]* @.str.1, i64 0, i64 0), [100 x i8]* %18, i32* %22)
  br label %24

24:                                               ; preds = %14
  %25 = load i32, i32* %3, align 4
  %26 = add nsw i32 %25, 1
  store i32 %26, i32* %3, align 4
  br label %10

27:                                               ; preds = %10
  %28 = load i32, i32* %2, align 4
  %29 = sub nsw i32 %28, 1
  store i32 %29, i32* %3, align 4
  %30 = load i32, i32* %2, align 4
  %31 = sub nsw i32 %30, 1
  store i32 %31, i32* %4, align 4
  br label %32

32:                                               ; preds = %54, %27
  %33 = load i32, i32* %4, align 4
  %34 = icmp sge i32 %33, 0
  br i1 %34, label %35, label %57

35:                                               ; preds = %32
  %36 = load i32, i32* %4, align 4
  %37 = sext i32 %36 to i64
  %38 = getelementptr inbounds [100 x %struct.p], [100 x %struct.p]* %6, i64 0, i64 %37
  %39 = getelementptr inbounds %struct.p, %struct.p* %38, i32 0, i32 1
  %40 = load i32, i32* %39, align 4
  %41 = icmp slt i32 %40, 60
  br i1 %41, label %42, label %53

42:                                               ; preds = %35
  %43 = load i32, i32* %3, align 4
  %44 = sext i32 %43 to i64
  %45 = getelementptr inbounds [100 x %struct.p], [100 x %struct.p]* %7, i64 0, i64 %44
  %46 = load i32, i32* %4, align 4
  %47 = sext i32 %46 to i64
  %48 = getelementptr inbounds [100 x %struct.p], [100 x %struct.p]* %6, i64 0, i64 %47
  %49 = bitcast %struct.p* %45 to i8*
  %50 = bitcast %struct.p* %48 to i8*
  call void @llvm.memcpy.p0i8.p0i8.i64(i8* align 8 %49, i8* align 8 %50, i64 104, i1 false)
  %51 = load i32, i32* %3, align 4
  %52 = add nsw i32 %51, -1
  store i32 %52, i32* %3, align 4
  br label %53

53:                                               ; preds = %42, %35
  br label %54

54:                                               ; preds = %53
  %55 = load i32, i32* %4, align 4
  %56 = add nsw i32 %55, -1
  store i32 %56, i32* %4, align 4
  br label %32

57:                                               ; preds = %32
  %58 = load i32, i32* %3, align 4
  %59 = add nsw i32 %58, 1
  store i32 %59, i32* %5, align 4
  %60 = load i32, i32* %2, align 4
  %61 = sub nsw i32 %60, 1
  store i32 %61, i32* %4, align 4
  br label %62

62:                                               ; preds = %84, %57
  %63 = load i32, i32* %4, align 4
  %64 = icmp sge i32 %63, 0
  br i1 %64, label %65, label %87

65:                                               ; preds = %62
  %66 = load i32, i32* %4, align 4
  %67 = sext i32 %66 to i64
  %68 = getelementptr inbounds [100 x %struct.p], [100 x %struct.p]* %6, i64 0, i64 %67
  %69 = getelementptr inbounds %struct.p, %struct.p* %68, i32 0, i32 1
  %70 = load i32, i32* %69, align 4
  %71 = icmp sge i32 %70, 60
  br i1 %71, label %72, label %83

72:                                               ; preds = %65
  %73 = load i32, i32* %3, align 4
  %74 = sext i32 %73 to i64
  %75 = getelementptr inbounds [100 x %struct.p], [100 x %struct.p]* %7, i64 0, i64 %74
  %76 = load i32, i32* %4, align 4
  %77 = sext i32 %76 to i64
  %78 = getelementptr inbounds [100 x %struct.p], [100 x %struct.p]* %6, i64 0, i64 %77
  %79 = bitcast %struct.p* %75 to i8*
  %80 = bitcast %struct.p* %78 to i8*
  call void @llvm.memcpy.p0i8.p0i8.i64(i8* align 8 %79, i8* align 8 %80, i64 104, i1 false)
  %81 = load i32, i32* %3, align 4
  %82 = add nsw i32 %81, -1
  store i32 %82, i32* %3, align 4
  br label %83

83:                                               ; preds = %72, %65
  br label %84

84:                                               ; preds = %83
  %85 = load i32, i32* %4, align 4
  %86 = add nsw i32 %85, -1
  store i32 %86, i32* %4, align 4
  br label %62

87:                                               ; preds = %62
  store i32 0, i32* %4, align 4
  br label %88

88:                                               ; preds = %139, %87
  %89 = load i32, i32* %4, align 4
  %90 = load i32, i32* %5, align 4
  %91 = icmp slt i32 %89, %90
  br i1 %91, label %92, label %142

92:                                               ; preds = %88
  store i32 0, i32* %3, align 4
  br label %93

93:                                               ; preds = %135, %92
  %94 = load i32, i32* %3, align 4
  %95 = load i32, i32* %5, align 4
  %96 = load i32, i32* %4, align 4
  %97 = sub nsw i32 %95, %96
  %98 = sub nsw i32 %97, 1
  %99 = icmp slt i32 %94, %98
  br i1 %99, label %100, label %138

100:                                              ; preds = %93
  %101 = load i32, i32* %3, align 4
  %102 = sext i32 %101 to i64
  %103 = getelementptr inbounds [100 x %struct.p], [100 x %struct.p]* %7, i64 0, i64 %102
  %104 = getelementptr inbounds %struct.p, %struct.p* %103, i32 0, i32 1
  %105 = load i32, i32* %104, align 4
  %106 = load i32, i32* %3, align 4
  %107 = add nsw i32 %106, 1
  %108 = sext i32 %107 to i64
  %109 = getelementptr inbounds [100 x %struct.p], [100 x %struct.p]* %7, i64 0, i64 %108
  %110 = getelementptr inbounds %struct.p, %struct.p* %109, i32 0, i32 1
  %111 = load i32, i32* %110, align 4
  %112 = icmp slt i32 %105, %111
  br i1 %112, label %113, label %134

113:                                              ; preds = %100
  %114 = load i32, i32* %3, align 4
  %115 = sext i32 %114 to i64
  %116 = getelementptr inbounds [100 x %struct.p], [100 x %struct.p]* %7, i64 0, i64 %115
  %117 = bitcast %struct.p* %8 to i8*
  %118 = bitcast %struct.p* %116 to i8*
  call void @llvm.memcpy.p0i8.p0i8.i64(i8* align 4 %117, i8* align 8 %118, i64 104, i1 false)
  %119 = load i32, i32* %3, align 4
  %120 = sext i32 %119 to i64
  %121 = getelementptr inbounds [100 x %struct.p], [100 x %struct.p]* %7, i64 0, i64 %120
  %122 = load i32, i32* %3, align 4
  %123 = add nsw i32 %122, 1
  %124 = sext i32 %123 to i64
  %125 = getelementptr inbounds [100 x %struct.p], [100 x %struct.p]* %7, i64 0, i64 %124
  %126 = bitcast %struct.p* %121 to i8*
  %127 = bitcast %struct.p* %125 to i8*
  call void @llvm.memcpy.p0i8.p0i8.i64(i8* align 8 %126, i8* align 8 %127, i64 104, i1 false)
  %128 = load i32, i32* %3, align 4
  %129 = add nsw i32 %128, 1
  %130 = sext i32 %129 to i64
  %131 = getelementptr inbounds [100 x %struct.p], [100 x %struct.p]* %7, i64 0, i64 %130
  %132 = bitcast %struct.p* %131 to i8*
  %133 = bitcast %struct.p* %8 to i8*
  call void @llvm.memcpy.p0i8.p0i8.i64(i8* align 8 %132, i8* align 4 %133, i64 104, i1 false)
  br label %134

134:                                              ; preds = %113, %100
  br label %135

135:                                              ; preds = %134
  %136 = load i32, i32* %3, align 4
  %137 = add nsw i32 %136, 1
  store i32 %137, i32* %3, align 4
  br label %93

138:                                              ; preds = %93
  br label %139

139:                                              ; preds = %138
  %140 = load i32, i32* %4, align 4
  %141 = add nsw i32 %140, 1
  store i32 %141, i32* %4, align 4
  br label %88

142:                                              ; preds = %88
  store i32 0, i32* %3, align 4
  br label %143

143:                                              ; preds = %153, %142
  %144 = load i32, i32* %3, align 4
  %145 = load i32, i32* %2, align 4
  %146 = icmp slt i32 %144, %145
  br i1 %146, label %147, label %156

147:                                              ; preds = %143
  %148 = load i32, i32* %3, align 4
  %149 = sext i32 %148 to i64
  %150 = getelementptr inbounds [100 x %struct.p], [100 x %struct.p]* %7, i64 0, i64 %149
  %151 = getelementptr inbounds %struct.p, %struct.p* %150, i32 0, i32 0
  %152 = call i32 (i8*, ...) @printf(i8* getelementptr inbounds ([4 x i8], [4 x i8]* @.str.2, i64 0, i64 0), [100 x i8]* %151)
  br label %153

153:                                              ; preds = %147
  %154 = load i32, i32* %3, align 4
  %155 = add nsw i32 %154, 1
  store i32 %155, i32* %3, align 4
  br label %143

156:                                              ; preds = %143
  ret i32 0
}

declare dso_local i32 @__isoc99_scanf(i8*, ...) #1

; Function Attrs: argmemonly nounwind willreturn
declare void @llvm.memcpy.p0i8.p0i8.i64(i8* noalias nocapture writeonly, i8* noalias nocapture readonly, i64, i1 immarg) #2

declare dso_local i32 @printf(i8*, ...) #1


!llvm.module.flags = !{!0}
!llvm.ident = !{!1}

!0 = !{i32 1, !"wchar_size", i32 4}
!1 = !{!"clang version 10.0.0-4ubuntu1 "}
