; ModuleID = 'source-C-CXX/8/1120.c'
source_filename = "source-C-CXX/8/1120.c"
target datalayout = "e-m:e-p270:32:32-p271:32:32-p272:64:64-i64:64-f80:128-n8:16:32:64-S128"
target triple = "x86_64-pc-linux-gnu"

%struct.p = type { [100 x i8], i32 }

@.str = private unnamed_addr constant [3 x i8] c"%d\00", align 1
@.str.1 = private unnamed_addr constant [5 x i8] c"%s%d\00", align 1

; Function Attrs: nofree nounwind sspstrong uwtable
define dso_local i32 @main() local_unnamed_addr #0 {
  %1 = alloca i32, align 4
  %2 = alloca [100 x %struct.p], align 16
  %3 = alloca [100 x %struct.p], align 16
  %4 = alloca %struct.p, align 4
  %5 = bitcast i32* %1 to i8*
  call void @llvm.lifetime.start.p0i8(i64 4, i8* nonnull %5) #5
  %6 = call i32 (i8*, ...) @__isoc99_scanf(i8* getelementptr inbounds ([3 x i8], [3 x i8]* @.str, i64 0, i64 0), i32* nonnull %1)
  %7 = getelementptr inbounds [100 x %struct.p], [100 x %struct.p]* %2, i64 0, i64 0, i32 0, i64 0
  call void @llvm.lifetime.start.p0i8(i64 10400, i8* nonnull %7) #5
  %8 = getelementptr inbounds [100 x %struct.p], [100 x %struct.p]* %3, i64 0, i64 0, i32 0, i64 0
  call void @llvm.lifetime.start.p0i8(i64 10400, i8* nonnull %8) #5
  %9 = getelementptr inbounds %struct.p, %struct.p* %4, i64 0, i32 0, i64 0
  call void @llvm.lifetime.start.p0i8(i64 104, i8* nonnull %9)
  %10 = load i32, i32* %1, align 4, !tbaa !5
  %11 = icmp sgt i32 %10, 0
  br i1 %11, label %14, label %12

12:                                               ; preds = %0
  %13 = add i32 %10, -1
  br label %46

14:                                               ; preds = %0, %14
  %15 = phi i64 [ %19, %14 ], [ 0, %0 ]
  %16 = getelementptr inbounds [100 x %struct.p], [100 x %struct.p]* %2, i64 0, i64 %15, i32 0
  %17 = getelementptr inbounds [100 x %struct.p], [100 x %struct.p]* %2, i64 0, i64 %15, i32 1
  %18 = call i32 (i8*, ...) @__isoc99_scanf(i8* getelementptr inbounds ([5 x i8], [5 x i8]* @.str.1, i64 0, i64 0), [100 x i8]* nonnull %16, i32* nonnull %17)
  %19 = add nuw nsw i64 %15, 1
  %20 = load i32, i32* %1, align 4, !tbaa !5
  %21 = sext i32 %20 to i64
  %22 = icmp slt i64 %19, %21
  br i1 %22, label %14, label %23, !llvm.loop !9

23:                                               ; preds = %14
  %24 = add i32 %20, -1
  %25 = icmp sgt i32 %20, 0
  br i1 %25, label %26, label %46

26:                                               ; preds = %23
  %27 = zext i32 %24 to i64
  br label %31

28:                                               ; preds = %42
  br i1 %25, label %29, label %46

29:                                               ; preds = %28
  %30 = zext i32 %20 to i64
  br label %50

31:                                               ; preds = %26, %42
  %32 = phi i64 [ %27, %26 ], [ %45, %42 ]
  %33 = phi i32 [ %24, %26 ], [ %43, %42 ]
  %34 = getelementptr inbounds [100 x %struct.p], [100 x %struct.p]* %2, i64 0, i64 %32, i32 1
  %35 = load i32, i32* %34, align 4, !tbaa !11
  %36 = icmp slt i32 %35, 60
  br i1 %36, label %37, label %42

37:                                               ; preds = %31
  %38 = sext i32 %33 to i64
  %39 = getelementptr inbounds [100 x %struct.p], [100 x %struct.p]* %3, i64 0, i64 %38, i32 0, i64 0
  %40 = getelementptr inbounds [100 x %struct.p], [100 x %struct.p]* %2, i64 0, i64 %32, i32 0, i64 0
  call void @llvm.memcpy.p0i8.p0i8.i64(i8* noundef nonnull align 8 dereferenceable(104) %39, i8* noundef nonnull align 8 dereferenceable(104) %40, i64 104, i1 false), !tbaa.struct !13
  %41 = add nsw i32 %33, -1
  br label %42

42:                                               ; preds = %31, %37
  %43 = phi i32 [ %41, %37 ], [ %33, %31 ]
  %44 = icmp sgt i64 %32, 0
  %45 = add nsw i64 %32, -1
  br i1 %44, label %31, label %28, !llvm.loop !15

46:                                               ; preds = %64, %23, %12, %28
  %47 = phi i32 [ %43, %28 ], [ %13, %12 ], [ %24, %23 ], [ %43, %64 ]
  %48 = phi i1 [ false, %28 ], [ false, %12 ], [ false, %23 ], [ true, %64 ]
  %49 = icmp slt i32 %47, 0
  br i1 %49, label %75, label %68

50:                                               ; preds = %29, %64
  %51 = phi i64 [ %30, %29 ], [ %67, %64 ]
  %52 = phi i32 [ %20, %29 ], [ %54, %64 ]
  %53 = phi i32 [ %43, %29 ], [ %65, %64 ]
  %54 = add nsw i32 %52, -1
  %55 = zext i32 %54 to i64
  %56 = getelementptr inbounds [100 x %struct.p], [100 x %struct.p]* %2, i64 0, i64 %55, i32 1
  %57 = load i32, i32* %56, align 4, !tbaa !11
  %58 = icmp sgt i32 %57, 59
  br i1 %58, label %59, label %64

59:                                               ; preds = %50
  %60 = sext i32 %53 to i64
  %61 = getelementptr inbounds [100 x %struct.p], [100 x %struct.p]* %3, i64 0, i64 %60, i32 0, i64 0
  %62 = getelementptr inbounds [100 x %struct.p], [100 x %struct.p]* %2, i64 0, i64 %55, i32 0, i64 0
  call void @llvm.memcpy.p0i8.p0i8.i64(i8* noundef nonnull align 8 dereferenceable(104) %61, i8* noundef nonnull align 8 dereferenceable(104) %62, i64 104, i1 false), !tbaa.struct !13
  %63 = add nsw i32 %53, -1
  br label %64

64:                                               ; preds = %50, %59
  %65 = phi i32 [ %63, %59 ], [ %53, %50 ]
  %66 = icmp sgt i64 %51, 1
  %67 = add nsw i64 %51, -1
  br i1 %66, label %50, label %46, !llvm.loop !16

68:                                               ; preds = %46, %89
  %69 = phi i32 [ %91, %89 ], [ %47, %46 ]
  %70 = phi i32 [ %90, %89 ], [ 0, %46 ]
  %71 = sub i32 %47, %70
  %72 = icmp sgt i32 %71, 0
  br i1 %72, label %73, label %89

73:                                               ; preds = %68
  %74 = zext i32 %69 to i64
  br label %76

75:                                               ; preds = %89, %46
  br i1 %48, label %93, label %101

76:                                               ; preds = %73, %87
  %77 = phi i64 [ 0, %73 ], [ %80, %87 ]
  %78 = getelementptr inbounds [100 x %struct.p], [100 x %struct.p]* %3, i64 0, i64 %77, i32 1
  %79 = load i32, i32* %78, align 4, !tbaa !11
  %80 = add nuw nsw i64 %77, 1
  %81 = getelementptr inbounds [100 x %struct.p], [100 x %struct.p]* %3, i64 0, i64 %80, i32 1
  %82 = load i32, i32* %81, align 4, !tbaa !11
  %83 = icmp slt i32 %79, %82
  br i1 %83, label %84, label %87

84:                                               ; preds = %76
  %85 = getelementptr inbounds [100 x %struct.p], [100 x %struct.p]* %3, i64 0, i64 %77, i32 0, i64 0
  call void @llvm.memcpy.p0i8.p0i8.i64(i8* noundef nonnull align 4 dereferenceable(104) %9, i8* noundef nonnull align 8 dereferenceable(104) %85, i64 104, i1 false), !tbaa.struct !13
  %86 = getelementptr inbounds [100 x %struct.p], [100 x %struct.p]* %3, i64 0, i64 %80, i32 0, i64 0
  call void @llvm.memcpy.p0i8.p0i8.i64(i8* noundef nonnull align 8 dereferenceable(104) %85, i8* noundef nonnull align 8 dereferenceable(104) %86, i64 104, i1 false), !tbaa.struct !13
  call void @llvm.memcpy.p0i8.p0i8.i64(i8* noundef nonnull align 8 dereferenceable(104) %86, i8* noundef nonnull align 4 dereferenceable(104) %9, i64 104, i1 false), !tbaa.struct !13
  br label %87

87:                                               ; preds = %76, %84
  %88 = icmp eq i64 %80, %74
  br i1 %88, label %89, label %76, !llvm.loop !17

89:                                               ; preds = %87, %68
  %90 = add nuw i32 %70, 1
  %91 = add i32 %69, -1
  %92 = icmp eq i32 %47, %70
  br i1 %92, label %75, label %68, !llvm.loop !18

93:                                               ; preds = %75, %93
  %94 = phi i64 [ %97, %93 ], [ 0, %75 ]
  %95 = getelementptr inbounds [100 x %struct.p], [100 x %struct.p]* %3, i64 0, i64 %94, i32 0, i64 0
  %96 = call i32 @puts(i8* nonnull %95)
  %97 = add nuw nsw i64 %94, 1
  %98 = load i32, i32* %1, align 4, !tbaa !5
  %99 = sext i32 %98 to i64
  %100 = icmp slt i64 %97, %99
  br i1 %100, label %93, label %101, !llvm.loop !19

101:                                              ; preds = %93, %75
  call void @llvm.lifetime.end.p0i8(i64 104, i8* nonnull %9)
  call void @llvm.lifetime.end.p0i8(i64 10400, i8* nonnull %8) #5
  call void @llvm.lifetime.end.p0i8(i64 10400, i8* nonnull %7) #5
  call void @llvm.lifetime.end.p0i8(i64 4, i8* nonnull %5) #5
  ret i32 0
}

; Function Attrs: argmemonly mustprogress nofree nosync nounwind willreturn
declare void @llvm.lifetime.start.p0i8(i64 immarg, i8* nocapture) #1

; Function Attrs: nofree nounwind
declare noundef i32 @__isoc99_scanf(i8* nocapture noundef readonly, ...) local_unnamed_addr #2

; Function Attrs: argmemonly mustprogress nofree nounwind willreturn
declare void @llvm.memcpy.p0i8.p0i8.i64(i8* noalias nocapture writeonly, i8* noalias nocapture readonly, i64, i1 immarg) #3

; Function Attrs: argmemonly mustprogress nofree nosync nounwind willreturn
declare void @llvm.lifetime.end.p0i8(i64 immarg, i8* nocapture) #1

; Function Attrs: nofree nounwind
declare noundef i32 @puts(i8* nocapture noundef readonly) local_unnamed_addr #4


!llvm.module.flags = !{!0, !1, !2, !3}
!llvm.ident = !{!4}

!0 = !{i32 1, !"wchar_size", i32 4}
!1 = !{i32 7, !"PIC Level", i32 2}
!2 = !{i32 7, !"PIE Level", i32 2}
!3 = !{i32 7, !"uwtable", i32 1}
!4 = !{!"clang version 13.0.0"}
!5 = !{!6, !6, i64 0}
!6 = !{!"int", !7, i64 0}
!7 = !{!"omnipotent char", !8, i64 0}
!8 = !{!"Simple C/C++ TBAA"}
!9 = distinct !{!9, !10}
!10 = !{!"llvm.loop.mustprogress"}
!11 = !{!12, !6, i64 100}
!12 = !{!"p", !7, i64 0, !6, i64 100}
!13 = !{i64 0, i64 100, !14, i64 100, i64 4, !5}
!14 = !{!7, !7, i64 0}
!15 = distinct !{!15, !10}
!16 = distinct !{!16, !10}
!17 = distinct !{!17, !10}
!18 = distinct !{!18, !10}
!19 = distinct !{!19, !10}
